target datalayout = "e-m:e-p270:32:32-p271:32:32-p272:64:64-i64:64-i128:128-f80:128-n8:16:32:64-S128"
target triple = "x86_64-unknown-linux-gnu"

%class.btSimpleBroadphase = type { %class.btBroadphaseInterface, i32, i32, i32, ptr, ptr, i32, ptr, i8, i32 }
%class.btBroadphaseInterface = type { ptr }
%struct.btSimpleBroadphaseProxy = type { %struct.btBroadphaseProxy.base, i32 }
%struct.btBroadphaseProxy.base = type <{ ptr, i32, i32, i32, %class.btVector3, %class.btVector3 }>
%class.btVector3 = type { [4 x float] }
%struct.btBroadphaseProxy = type <{ ptr, i32, i32, i32, %class.btVector3, %class.btVector3, [4 x i8] }>

; Function Attrs: mustprogress uwtable
define dso_local void @_ZN18btSimpleBroadphase7rayTestERK9btVector3S2_R23btBroadphaseRayCallbackS2_S2_(ptr noundef nonnull align 8 dereferenceable(64) %this, ptr noundef nonnull align 4 dereferenceable(16) %rayFrom, ptr noundef nonnull align 4 dereferenceable(16) %rayTo, ptr noundef nonnull align 8 dereferenceable(40) %rayCallback, ptr noundef nonnull align 4 dereferenceable(16) %aabbMin, ptr noundef nonnull align 4 dereferenceable(16) %aabbMax) unnamed_addr #2 align 2 {
entry:
  %this.addr = alloca ptr, align 8
  %rayFrom.addr = alloca ptr, align 8
  %rayTo.addr = alloca ptr, align 8
  %rayCallback.addr = alloca ptr, align 8
  %aabbMin.addr = alloca ptr, align 8
  %aabbMax.addr = alloca ptr, align 8
  %i = alloca i32, align 4
  %proxy = alloca ptr, align 8
  store ptr %this, ptr %this.addr, align 8
  store ptr %rayFrom, ptr %rayFrom.addr, align 8
  store ptr %rayTo, ptr %rayTo.addr, align 8
  store ptr %rayCallback, ptr %rayCallback.addr, align 8
  store ptr %aabbMin, ptr %aabbMin.addr, align 8
  store ptr %aabbMax, ptr %aabbMax.addr, align 8
  %this1 = load ptr, ptr %this.addr, align 8
  store i32 0, ptr %i, align 4
  br label %for.cond

for.cond:                                         ; preds = %for.inc, %entry
  %0 = load i32, ptr %i, align 4
  %m_LastHandleIndex = getelementptr inbounds %class.btSimpleBroadphase, ptr %this1, i32 0, i32 3
  %1 = load i32, ptr %m_LastHandleIndex, align 8
  %cmp = icmp sle i32 %0, %1
  br i1 %cmp, label %for.body, label %for.end

for.body:                                         ; preds = %for.cond
  %m_pHandles = getelementptr inbounds %class.btSimpleBroadphase, ptr %this1, i32 0, i32 4
  %2 = load ptr, ptr %m_pHandles, align 8
  %3 = load i32, ptr %i, align 4
  %idxprom = sext i32 %3 to i64
  %arrayidx = getelementptr inbounds %struct.btSimpleBroadphaseProxy, ptr %2, i64 %idxprom
  store ptr %arrayidx, ptr %proxy, align 8
  %4 = load ptr, ptr %proxy, align 8
  %m_clientObject = getelementptr inbounds %struct.btBroadphaseProxy, ptr %4, i32 0, i32 0
  %5 = load ptr, ptr %m_clientObject, align 8
  %tobool = icmp ne ptr %5, null
  br i1 %tobool, label %if.end, label %if.then

if.then:                                          ; preds = %for.body
  br label %for.inc

if.end:                                           ; preds = %for.body
  %6 = load ptr, ptr %rayCallback.addr, align 8
  %7 = load ptr, ptr %proxy, align 8
  %vtable = load ptr, ptr %6, align 8
  %vfn = getelementptr inbounds ptr, ptr %vtable, i64 2
  %8 = load ptr, ptr %vfn, align 8
  %call = call noundef zeroext i1 %8(ptr noundef nonnull align 8 dereferenceable(8) %6, ptr noundef %7)
  br label %for.inc

for.inc:                                          ; preds = %if.end, %if.then
  %9 = load i32, ptr %i, align 4
  %inc = add nsw i32 %9, 1
  store i32 %inc, ptr %i, align 4
  br label %for.cond, !llvm.loop !9

for.end:                                          ; preds = %for.cond
  ret void
}