; Function Attrs: mustprogress uwtable
define dso_local void @_ZN18btSimpleBroadphase7rayTestERK9btVector3S2_R23btBroadphaseRayCallbackS2_S2_(ptr nocapture noundef nonnull readonly align 8 dereferenceable(64) %this, ptr nocapture nonnull readnone align 4 %rayFrom, ptr nocapture nonnull readnone align 4 %rayTo, ptr noundef nonnull align 8 dereferenceable(40) %rayCallback, ptr nocapture nonnull readnone align 4 %aabbMin, ptr nocapture nonnull readnone align 4 %aabbMax) unnamed_addr #1 align 2 {
entry:
  %m_LastHandleIndex = getelementptr inbounds i8, ptr %this, i64 16
  %0 = load i32, ptr %m_LastHandleIndex, align 8
  %cmp.not4 = icmp slt i32 %0, 0
  br i1 %cmp.not4, label %for.end, label %for.body.lr.ph

for.body.lr.ph:                                   ; preds = %entry
  %m_pHandles = getelementptr inbounds i8, ptr %this, i64 24
  br label %for.body

for.body:                                         ; preds = %for.body.lr.ph, %for.inc
  %1 = phi i32 [ %0, %for.body.lr.ph ], [ %5, %for.inc ]
  %indvars.iv = phi i64 [ 0, %for.body.lr.ph ], [ %indvars.iv.next, %for.inc ]
  %2 = load ptr, ptr %m_pHandles, align 8
  %arrayidx = getelementptr inbounds %struct.btSimpleBroadphaseProxy, ptr %2, i64 %indvars.iv
  %3 = load ptr, ptr %arrayidx, align 8
  %tobool.not = icmp eq ptr %3, null
  br i1 %tobool.not, label %for.inc, label %if.end

if.end:                                           ; preds = %for.body
  %vtable = load ptr, ptr %rayCallback, align 8
  %vfn = getelementptr inbounds i8, ptr %vtable, i64 16
  %4 = load ptr, ptr %vfn, align 8
  %call = tail call noundef zeroext i1 %4(ptr noundef nonnull align 8 dereferenceable(8) %rayCallback, ptr noundef nonnull %arrayidx)
  %.pre = load i32, ptr %m_LastHandleIndex, align 8
  br label %for.inc

for.inc:                                          ; preds = %for.body, %if.end
  %5 = phi i32 [ %1, %for.body ], [ %.pre, %if.end ]
  %indvars.iv.next = add nuw nsw i64 %indvars.iv, 1
  %6 = sext i32 %5 to i64
  %cmp.not.not = icmp slt i64 %indvars.iv, %6
  br i1 %cmp.not.not, label %for.body, label %for.end, !llvm.loop !7

for.end:                                          ; preds = %for.inc, %entry
  ret void
}